target datalayout = "e-m:e-p270:32:32-p271:32:32-p272:64:64-i64:64-i128:128-f80:128-n8:16:32:64-S128"
target triple = "x86_64-unknown-linux-gnu"

%struct.tm = type { i32, i32, i32, i32, i32, i32, i32, i32, i32, i64, ptr }

; Function Attrs: mustprogress nounwind uwtable
define dso_local noundef i64 @_ZN2EA4StdC15GetTimeZoneBiasEv() #3 {
entry:
  %jan3rd1970 = alloca i64, align 8
  %tmGM = alloca %struct.tm, align 8
  %tLocal = alloca i64, align 8
  store i64 172800, ptr %jan3rd1970, align 8
  %call = call ptr @gmtime_r(ptr noundef %jan3rd1970, ptr noundef %tmGM) #1
  %call1 = call i64 @mktime(ptr noundef %tmGM) #1
  store i64 %call1, ptr %tLocal, align 8
  %0 = load i64, ptr %tLocal, align 8
  %sub = sub nsw i64 172800, %0
  ret i64 %sub
}