; Function Attrs: mustprogress nounwind uwtable
define dso_local noundef range(i64 -9223372036854603007, -9223372036854775808) i64 @_ZN2EA4StdC15GetTimeZoneBiasEv() local_unnamed_addr #3 {
entry:
  %jan3rd1970 = alloca i64, align 8
  %tmGM = alloca %struct.tm, align 8
  store i64 172800, ptr %jan3rd1970, align 8
  %call = call ptr @gmtime_r(ptr noundef nonnull %jan3rd1970, ptr noundef nonnull %tmGM) #19
  %call1 = call i64 @mktime(ptr noundef nonnull %tmGM) #19
  %sub = sub nsw i64 172800, %call1
  ret i64 %sub
}